target datalayout = "e-m:e-p270:32:32-p271:32:32-p272:64:64-i64:64-i128:128-f80:128-n8:16:32:64-S128"
target triple = "x86_64-unknown-linux-gnu"

%"class.node::MutexBase" = type { %union.pthread_mutex_t }
%union.pthread_mutex_t = type { %struct.__pthread_mutex_s }
%struct.__pthread_mutex_s = type { i32, i32, i32, i32, i32, i16, i16, %struct.__pthread_internal_list }
%struct.__pthread_internal_list = type { ptr, ptr }
%"class.node::MutexBase<node::LibuvMutexTraits>::ScopedLock" = type { ptr }
%"class.v8::Local" = type { %"class.v8::LocalBase" }
%"class.v8::LocalBase" = type { %"class.v8::IndirectHandleBase" }
%"class.v8::IndirectHandleBase" = type { ptr }
%"class.node::Utf8Value" = type { %"class.node::MaybeStackBuffer.3" }
%"class.node::MaybeStackBuffer.3" = type { i64, i64, ptr, [1024 x i8] }
%"class.v8::Local.4" = type { %"class.v8::LocalBase.5" }
%"class.v8::LocalBase.5" = type { %"class.v8::IndirectHandleBase" }

@_ZN4node11per_process13env_var_mutexE = dso_local global %"class.node::MutexBase" zeroinitializer, align 8

; Function Attrs: mustprogress nounwind uwtable
define linkonce_odr dso_local noundef zeroext i1 @_ZNK4node16MaybeStackBufferIcLm1024EE13IsInvalidatedEv(ptr noundef nonnull align 8 dereferenceable(1048) %this) #4 comdat align 2 {
entry:
  %this.addr = alloca ptr, align 8
  store ptr %this, ptr %this.addr, align 8
  %this1 = load ptr, ptr %this.addr, align 8
  %buf_ = getelementptr inbounds %"class.node::MaybeStackBuffer.3", ptr %this1, i32 0, i32 2
  %0 = load ptr, ptr %buf_, align 8
  %cmp = icmp eq ptr %0, null
  ret i1 %cmp
}

; Function Attrs: mustprogress nounwind uwtable
define linkonce_odr dso_local noundef zeroext i1 @_ZNK4node16MaybeStackBufferIcLm1024EE11IsAllocatedEv(ptr noundef nonnull align 8 dereferenceable(1048) %this) #4 comdat align 2 {
entry:
  %this.addr = alloca ptr, align 8
  store ptr %this, ptr %this.addr, align 8
  %this1 = load ptr, ptr %this.addr, align 8
  %call = call noundef zeroext i1 @_ZNK4node16MaybeStackBufferIcLm1024EE13IsInvalidatedEv(ptr noundef nonnull align 8 dereferenceable(1048) %this1)
  br i1 %call, label %land.end, label %land.rhs

land.rhs:                                         ; preds = %entry
  %buf_ = getelementptr inbounds %"class.node::MaybeStackBuffer.3", ptr %this1, i32 0, i32 2
  %0 = load ptr, ptr %buf_, align 8
  %buf_st_ = getelementptr inbounds %"class.node::MaybeStackBuffer.3", ptr %this1, i32 0, i32 3
  %arraydecay = getelementptr inbounds [1024 x i8], ptr %buf_st_, i64 0, i64 0
  %cmp = icmp ne ptr %0, %arraydecay
  br label %land.end

land.end:                                         ; preds = %land.rhs, %entry
  %1 = phi i1 [ false, %entry ], [ %cmp, %land.rhs ]
  ret i1 %1
}

; Function Attrs: mustprogress nounwind uwtable
define linkonce_odr dso_local void @_ZN4node16LibuvMutexTraits12mutex_unlockEP15pthread_mutex_t(ptr noundef %mutex) #4 comdat align 2 {
entry:
  %mutex.addr = alloca ptr, align 8
  store ptr %mutex, ptr %mutex.addr, align 8
  %0 = load ptr, ptr %mutex.addr, align 8
  call void @uv_mutex_unlock(ptr noundef %0)
  ret void
}

; Function Attrs: mustprogress nounwind uwtable
define linkonce_odr dso_local void @_ZN4node16LibuvMutexTraits10mutex_lockEP15pthread_mutex_t(ptr noundef %mutex) #4 comdat align 2 {
entry:
  %mutex.addr = alloca ptr, align 8
  store ptr %mutex, ptr %mutex.addr, align 8
  %0 = load ptr, ptr %mutex.addr, align 8
  call void @uv_mutex_lock(ptr noundef %0)
  ret void
}

; Function Attrs: mustprogress nounwind uwtable
define linkonce_odr dso_local void @_ZN4node16MaybeStackBufferIcLm1024EED2Ev(ptr noundef nonnull align 8 dereferenceable(1048) %this) unnamed_addr #4 comdat align 2 {
entry:
  %this.addr = alloca ptr, align 8
  store ptr %this, ptr %this.addr, align 8
  %this1 = load ptr, ptr %this.addr, align 8
  %call = call noundef zeroext i1 @_ZNK4node16MaybeStackBufferIcLm1024EE11IsAllocatedEv(ptr noundef nonnull align 8 dereferenceable(1048) %this1)
  br i1 %call, label %if.then, label %if.end

if.then:                                          ; preds = %entry
  %buf_ = getelementptr inbounds %"class.node::MaybeStackBuffer.3", ptr %this1, i32 0, i32 2
  %0 = load ptr, ptr %buf_, align 8
  call void @free(ptr noundef %0) #3
  br label %if.end

if.end:                                           ; preds = %if.then, %entry
  ret void
}

; Function Attrs: mustprogress nounwind uwtable
define linkonce_odr dso_local void @_ZN4node9MutexBaseINS_16LibuvMutexTraitsEE10ScopedLockD2Ev(ptr noundef nonnull align 8 dereferenceable(8) %this) unnamed_addr #4 comdat align 2 {
entry:
  %this.addr = alloca ptr, align 8
  store ptr %this, ptr %this.addr, align 8
  %this1 = load ptr, ptr %this.addr, align 8
  %mutex_ = getelementptr inbounds %"class.node::MutexBase<node::LibuvMutexTraits>::ScopedLock", ptr %this1, i32 0, i32 0
  %0 = load ptr, ptr %mutex_, align 8
  %mutex_2 = getelementptr inbounds %"class.node::MutexBase", ptr %0, i32 0, i32 0
  call void @_ZN4node16LibuvMutexTraits12mutex_unlockEP15pthread_mutex_t(ptr noundef %mutex_2)
  ret void
}

; Function Attrs: mustprogress nounwind uwtable
define linkonce_odr dso_local void @_ZN4node9MutexBaseINS_16LibuvMutexTraitsEE10ScopedLockC2ERKS2_(ptr noundef nonnull align 8 dereferenceable(8) %this, ptr noundef nonnull align 8 dereferenceable(40) %mutex) unnamed_addr #4 comdat align 2 {
entry:
  %this.addr = alloca ptr, align 8
  %mutex.addr = alloca ptr, align 8
  store ptr %this, ptr %this.addr, align 8
  store ptr %mutex, ptr %mutex.addr, align 8
  %this1 = load ptr, ptr %this.addr, align 8
  %mutex_ = getelementptr inbounds %"class.node::MutexBase<node::LibuvMutexTraits>::ScopedLock", ptr %this1, i32 0, i32 0
  %0 = load ptr, ptr %mutex.addr, align 8
  store ptr %0, ptr %mutex_, align 8
  %mutex_2 = getelementptr inbounds %"class.node::MutexBase<node::LibuvMutexTraits>::ScopedLock", ptr %this1, i32 0, i32 0
  %1 = load ptr, ptr %mutex_2, align 8
  %mutex_3 = getelementptr inbounds %"class.node::MutexBase", ptr %1, i32 0, i32 0
  call void @_ZN4node16LibuvMutexTraits10mutex_lockEP15pthread_mutex_t(ptr noundef %mutex_3)
  ret void
}

; Function Attrs: mustprogress nounwind uwtable
define linkonce_odr dso_local void @_ZN4node9Utf8ValueD2Ev(ptr noundef nonnull align 8 dereferenceable(1048) %this) unnamed_addr #4 comdat align 2 {
entry:
  %this.addr = alloca ptr, align 8
  store ptr %this, ptr %this.addr, align 8
  %this1 = load ptr, ptr %this.addr, align 8
  call void @_ZN4node16MaybeStackBufferIcLm1024EED2Ev(ptr noundef nonnull align 8 dereferenceable(1048) %this1) #3
  ret void
}

; Function Attrs: mustprogress nounwind uwtable
define dso_local noundef i32 @_ZNK4node12RealEnvStore5QueryEPKc(ptr noundef nonnull align 8 dereferenceable(8) %this, ptr noundef %key) unnamed_addr #4 align 2 {
entry:
  %retval = alloca i32, align 4
  %this.addr = alloca ptr, align 8
  %key.addr = alloca ptr, align 8
  %lock = alloca %"class.node::MutexBase<node::LibuvMutexTraits>::ScopedLock", align 8
  %val = alloca [2 x i8], align 1
  %init_sz = alloca i64, align 8
  %ret = alloca i32, align 4
  %cleanup.dest.slot = alloca i32, align 4
  store ptr %this, ptr %this.addr, align 8
  store ptr %key, ptr %key.addr, align 8
  call void @_ZN4node9MutexBaseINS_16LibuvMutexTraitsEE10ScopedLockC2ERKS2_(ptr noundef nonnull align 8 dereferenceable(8) %lock, ptr noundef nonnull align 8 dereferenceable(40) @_ZN4node11per_process13env_var_mutexE)
  store i64 2, ptr %init_sz, align 8
  %0 = load ptr, ptr %key.addr, align 8
  %arraydecay = getelementptr inbounds [2 x i8], ptr %val, i64 0, i64 0
  %call = call i32 @uv_os_getenv(ptr noundef %0, ptr noundef %arraydecay, ptr noundef %init_sz)
  store i32 %call, ptr %ret, align 4
  %1 = load i32, ptr %ret, align 4
  %cmp = icmp eq i32 %1, -2
  br i1 %cmp, label %if.then, label %if.end

if.then:                                          ; preds = %entry
  store i32 -1, ptr %retval, align 4
  store i32 1, ptr %cleanup.dest.slot, align 4
  br label %cleanup

if.end:                                           ; preds = %entry
  store i32 0, ptr %retval, align 4
  store i32 1, ptr %cleanup.dest.slot, align 4
  br label %cleanup

cleanup:                                          ; preds = %if.end, %if.then
  call void @_ZN4node9MutexBaseINS_16LibuvMutexTraitsEE10ScopedLockD2Ev(ptr noundef nonnull align 8 dereferenceable(8) %lock) #3
  %2 = load i32, ptr %retval, align 4
  ret i32 %2
}

; Function Attrs: mustprogress nounwind uwtable
define linkonce_odr dso_local noundef ptr @_ZN4node16MaybeStackBufferIcLm1024EEdeEv(ptr noundef nonnull align 8 dereferenceable(1048) %this) #4 comdat align 2 {
entry:
  %this.addr = alloca ptr, align 8
  store ptr %this, ptr %this.addr, align 8
  %this1 = load ptr, ptr %this.addr, align 8
  %buf_ = getelementptr inbounds %"class.node::MaybeStackBuffer.3", ptr %this1, i32 0, i32 2
  %0 = load ptr, ptr %buf_, align 8
  ret ptr %0
}

; Function Attrs: mustprogress nounwind uwtable
define dso_local noundef i32 @_ZNK4node12RealEnvStore5QueryEPN2v87IsolateENS1_5LocalINS1_6StringEEE(ptr noundef nonnull align 8 dereferenceable(8) %this, ptr noundef %isolate, ptr %property.coerce) unnamed_addr #4 align 2 {
entry:
  %this.addr.i12 = alloca ptr, align 8
  %other.addr.i = alloca ptr, align 8
  %that.i = alloca %"class.v8::Local", align 8
  %this.addr.i = alloca ptr, align 8
  %property = alloca %"class.v8::Local", align 8
  %this.addr = alloca ptr, align 8
  %isolate.addr = alloca ptr, align 8
  %key = alloca %"class.node::Utf8Value", align 8
  %agg.tmp = alloca %"class.v8::Local.4", align 8
  %agg.tmp4 = alloca %"class.v8::Local", align 8
  %coerce.dive = getelementptr inbounds %"class.v8::Local", ptr %property, i32 0, i32 0
  %coerce.dive1 = getelementptr inbounds %"class.v8::LocalBase", ptr %coerce.dive, i32 0, i32 0
  %coerce.dive2 = getelementptr inbounds %"class.v8::IndirectHandleBase", ptr %coerce.dive1, i32 0, i32 0
  store ptr %property.coerce, ptr %coerce.dive2, align 8
  store ptr %this, ptr %this.addr, align 8
  store ptr %isolate, ptr %isolate.addr, align 8
  %this3 = load ptr, ptr %this.addr, align 8
  %0 = load ptr, ptr %isolate.addr, align 8
  call void @llvm.memcpy.p0.p0.i64(ptr align 8 %agg.tmp4, ptr align 8 %property, i64 8, i1 false)
  %coerce.dive5 = getelementptr inbounds %"class.v8::Local", ptr %agg.tmp4, i32 0, i32 0
  %coerce.dive6 = getelementptr inbounds %"class.v8::LocalBase", ptr %coerce.dive5, i32 0, i32 0
  %coerce.dive7 = getelementptr inbounds %"class.v8::IndirectHandleBase", ptr %coerce.dive6, i32 0, i32 0
  %1 = load ptr, ptr %coerce.dive7, align 8
  store ptr %1, ptr %that.i, align 8
  store ptr %agg.tmp, ptr %this.addr.i, align 8
  %this3.i = load ptr, ptr %this.addr.i, align 8
  store ptr %this3.i, ptr %this.addr.i12, align 8
  store ptr %that.i, ptr %other.addr.i, align 8
  %this1.i = load ptr, ptr %this.addr.i12, align 8
  %2 = load ptr, ptr %other.addr.i, align 8
  call void @llvm.memcpy.p0.p0.i64(ptr align 8 %this1.i, ptr align 8 %2, i64 8, i1 false)
  %coerce.dive8 = getelementptr inbounds %"class.v8::Local.4", ptr %agg.tmp, i32 0, i32 0
  %coerce.dive9 = getelementptr inbounds %"class.v8::LocalBase.5", ptr %coerce.dive8, i32 0, i32 0
  %coerce.dive10 = getelementptr inbounds %"class.v8::IndirectHandleBase", ptr %coerce.dive9, i32 0, i32 0
  %3 = load ptr, ptr %coerce.dive10, align 8
  call void @_ZN4node9Utf8ValueC1EPN2v87IsolateENS1_5LocalINS1_5ValueEEE(ptr noundef nonnull align 8 dereferenceable(1048) %key, ptr noundef %0, ptr %3)
  %call = call noundef ptr @_ZN4node16MaybeStackBufferIcLm1024EEdeEv(ptr noundef nonnull align 8 dereferenceable(1048) %key)
  %call11 = call noundef i32 @_ZNK4node12RealEnvStore5QueryEPKc(ptr noundef nonnull align 8 dereferenceable(8) %this3, ptr noundef %call)
  call void @_ZN4node9Utf8ValueD2Ev(ptr noundef nonnull align 8 dereferenceable(1048) %key) #3
  ret i32 %call11
}