; Function Attrs: mustprogress nounwind uwtable
define dso_local noundef i32 @_ZNK4node12RealEnvStore5QueryEPN2v87IsolateENS1_5LocalINS1_6StringEEE(ptr nocapture nonnull readnone align 8 %this, ptr noundef %isolate, ptr %property.coerce) unnamed_addr #3 align 2 {
entry:
  %val.i = alloca [2 x i8], align 1
  %init_sz.i = alloca i64, align 8
  %key = alloca %"class.node::Utf8Value", align 8
  call void @_ZN4node9Utf8ValueC1EPN2v87IsolateENS1_5LocalINS1_5ValueEEE(ptr noundef nonnull align 8 dereferenceable(1048) %key, ptr noundef %isolate, ptr %property.coerce) #20
  %buf_.i = getelementptr inbounds i8, ptr %key, i64 16
  %0 = load ptr, ptr %buf_.i, align 8
  call void @llvm.lifetime.start.p0(i64 2, ptr nonnull %val.i)
  call void @llvm.lifetime.start.p0(i64 8, ptr nonnull %init_sz.i)
  call void @uv_mutex_lock(ptr noundef nonnull @_ZN4node11per_process13env_var_mutexE) #20
  store i64 2, ptr %init_sz.i, align 8
  %call.i = call i32 @uv_os_getenv(ptr noundef %0, ptr noundef nonnull %val.i, ptr noundef nonnull %init_sz.i) #20
  call void @uv_mutex_unlock(ptr noundef nonnull @_ZN4node11per_process13env_var_mutexE) #20
  call void @llvm.lifetime.end.p0(i64 2, ptr nonnull %val.i)
  call void @llvm.lifetime.end.p0(i64 8, ptr nonnull %init_sz.i)
  %1 = load ptr, ptr %buf_.i, align 8
  %cmp.i.i.i.i = icmp ne ptr %1, null
  %buf_st_.i.i.i = getelementptr inbounds i8, ptr %key, i64 24
  %cmp.i.i.i = icmp ne ptr %1, %buf_st_.i.i.i
  %2 = select i1 %cmp.i.i.i.i, i1 %cmp.i.i.i, i1 false
  br i1 %2, label %if.then.i.i, label %_ZN4node9Utf8ValueD2Ev.exit

if.then.i.i:                                      ; preds = %entry
  call void @free(ptr noundef nonnull %1) #20
  br label %_ZN4node9Utf8ValueD2Ev.exit

_ZN4node9Utf8ValueD2Ev.exit:                      ; preds = %entry, %if.then.i.i
  %cmp.i = icmp eq i32 %call.i, -2
  %..i = sext i1 %cmp.i to i32
  ret i32 %..i
}